target datalayout = "e-m:e-p270:32:32-p271:32:32-p272:64:64-i64:64-i128:128-f80:128-n8:16:32:64-S128"
target triple = "x86_64-pc-linux-gnu"

; Function Attrs: inlinehint mustprogress nounwind uwtable
define linkonce_odr dso_local noundef i64 @_ZN4absl9gbswap_64Em(i64 noundef %0) #9 comdat {
  %2 = alloca i64, align 8
  store i64 %0, ptr %2, align 8, !tbaa !4
  %3 = load i64, ptr %2, align 8, !tbaa !4
  %4 = call i64 @llvm.bswap.i64(i64 %3)
  ret i64 %4
}

; Function Attrs: inlinehint mustprogress nounwind uwtable
define linkonce_odr dso_local noundef i32 @_ZN4absl13base_internal15UnalignedLoad32EPKv(ptr noundef %0) #9 comdat {
  %2 = alloca ptr, align 8
  %3 = alloca i32, align 4
  store ptr %0, ptr %2, align 8, !tbaa !19
  call void @llvm.lifetime.start.p0(i64 4, ptr %3) #12
  %4 = load ptr, ptr %2, align 8, !tbaa !19
  call void @llvm.memcpy.p0.p0.i64(ptr align 4 %3, ptr align 1 %4, i64 4, i1 false)
  %5 = load i32, ptr %3, align 4, !tbaa !17
  call void @llvm.lifetime.end.p0(i64 4, ptr %3) #12
  ret i32 %5
}

; Function Attrs: alwaysinline mustprogress uwtable
define linkonce_odr dso_local noundef i64 @_ZN4absl13hash_internal15MixingHashState7WeakMixEm(i64 noundef %0) #5 comdat align 2 {
  %2 = alloca i64, align 8
  store i64 %0, ptr %2, align 8, !tbaa !4
  %3 = load i64, ptr %2, align 8, !tbaa !4
  %4 = mul i64 %3, -2543921745674291987
  %5 = call noundef i64 @_ZN4absl9gbswap_64Em(i64 noundef %4)
  ret i64 %5
}

; Function Attrs: mustprogress nounwind uwtable
define linkonce_odr dso_local noundef i32 @_ZN4absl13hash_internal15MixingHashState8Read1To3EPKhm(ptr noundef %0, i64 noundef %1) #1 comdat align 2 {
  %3 = alloca ptr, align 8
  %4 = alloca i64, align 8
  %5 = alloca i32, align 4
  %6 = alloca i32, align 4
  store ptr %0, ptr %3, align 8, !tbaa !8
  store i64 %1, ptr %4, align 8, !tbaa !4
  call void @llvm.lifetime.start.p0(i64 4, ptr %5) #12
  %7 = load ptr, ptr %3, align 8, !tbaa !8
  %8 = getelementptr inbounds i8, ptr %7, i64 0
  %9 = load i8, ptr %8, align 1, !tbaa !16
  %10 = zext i8 %9 to i32
  %11 = shl i32 %10, 16
  %12 = load ptr, ptr %3, align 8, !tbaa !8
  %13 = load i64, ptr %4, align 8, !tbaa !4
  %14 = sub i64 %13, 1
  %15 = getelementptr inbounds nuw i8, ptr %12, i64 %14
  %16 = load i8, ptr %15, align 1, !tbaa !16
  %17 = zext i8 %16 to i32
  %18 = or i32 %11, %17
  store i32 %18, ptr %5, align 4, !tbaa !17
  call void @llvm.lifetime.start.p0(i64 4, ptr %6) #12
  %19 = load ptr, ptr %3, align 8, !tbaa !8
  %20 = load i64, ptr %4, align 8, !tbaa !4
  %21 = udiv i64 %20, 2
  %22 = getelementptr inbounds nuw i8, ptr %19, i64 %21
  %23 = load i8, ptr %22, align 1, !tbaa !16
  %24 = zext i8 %23 to i32
  %25 = shl i32 %24, 8
  store i32 %25, ptr %6, align 4, !tbaa !17
  %26 = load i32, ptr %5, align 4, !tbaa !17
  %27 = load i32, ptr %6, align 4, !tbaa !17
  %28 = or i32 %26, %27
  call void @llvm.lifetime.end.p0(i64 4, ptr %6) #12
  call void @llvm.lifetime.end.p0(i64 4, ptr %5) #12
  ret i32 %28
}

; Function Attrs: mustprogress uwtable
define linkonce_odr dso_local noundef i64 @_ZN4absl13hash_internal15MixingHashState8Read4To8EPKhm(ptr noundef %0, i64 noundef %1) #0 comdat align 2 {
  %3 = alloca ptr, align 8
  %4 = alloca i64, align 8
  %5 = alloca i64, align 8
  %6 = alloca i64, align 8
  store ptr %0, ptr %3, align 8, !tbaa !8
  store i64 %1, ptr %4, align 8, !tbaa !4
  call void @llvm.lifetime.start.p0(i64 8, ptr %5) #12
  %7 = load ptr, ptr %3, align 8, !tbaa !8
  %8 = call noundef i32 @_ZN4absl13base_internal15UnalignedLoad32EPKv(ptr noundef %7)
  %9 = zext i32 %8 to i64
  %10 = shl i64 %9, 32
  store i64 %10, ptr %5, align 8, !tbaa !4
  call void @llvm.lifetime.start.p0(i64 8, ptr %6) #12
  %11 = load ptr, ptr %3, align 8, !tbaa !8
  %12 = load i64, ptr %4, align 8, !tbaa !4
  %13 = getelementptr inbounds nuw i8, ptr %11, i64 %12
  %14 = getelementptr inbounds i8, ptr %13, i64 -4
  %15 = call noundef i32 @_ZN4absl13base_internal15UnalignedLoad32EPKv(ptr noundef %14)
  %16 = zext i32 %15 to i64
  store i64 %16, ptr %6, align 8, !tbaa !4
  %17 = load i64, ptr %5, align 8, !tbaa !4
  %18 = load i64, ptr %6, align 8, !tbaa !4
  %19 = or i64 %17, %18
  call void @llvm.lifetime.end.p0(i64 8, ptr %6) #12
  call void @llvm.lifetime.end.p0(i64 8, ptr %5) #12
  ret i64 %19
}

; Function Attrs: alwaysinline mustprogress uwtable
define linkonce_odr dso_local noundef i64 @_ZN4absl13hash_internal15MixingHashState26CombineSmallContiguousImplEmPKhm(i64 noundef %0, ptr noundef %1, i64 noundef %2) #5 comdat align 2 {
  %4 = alloca i64, align 8
  %5 = alloca i64, align 8
  %6 = alloca ptr, align 8
  %7 = alloca i64, align 8
  %8 = alloca i64, align 8
  %9 = alloca i32, align 4
  store i64 %0, ptr %5, align 8, !tbaa !4
  store ptr %1, ptr %6, align 8, !tbaa !8
  store i64 %2, ptr %7, align 8, !tbaa !4
  %10 = load i64, ptr %7, align 8, !tbaa !4
  %11 = icmp ule i64 %10, 8
  call void @llvm.assume(i1 %11)
  call void @llvm.lifetime.start.p0(i64 8, ptr %8) #12
  %12 = load i64, ptr %7, align 8, !tbaa !4
  %13 = icmp uge i64 %12, 4
  br i1 %13, label %14, label %18

14:                                               ; preds = %3
  %15 = load ptr, ptr %6, align 8, !tbaa !8
  %16 = load i64, ptr %7, align 8, !tbaa !4
  %17 = call noundef i64 @_ZN4absl13hash_internal15MixingHashState8Read4To8EPKhm(ptr noundef %15, i64 noundef %16)
  store i64 %17, ptr %8, align 8, !tbaa !4
  br label %29

18:                                               ; preds = %3
  %19 = load i64, ptr %7, align 8, !tbaa !4
  %20 = icmp ugt i64 %19, 0
  br i1 %20, label %21, label %26

21:                                               ; preds = %18
  %22 = load ptr, ptr %6, align 8, !tbaa !8
  %23 = load i64, ptr %7, align 8, !tbaa !4
  %24 = call noundef i32 @_ZN4absl13hash_internal15MixingHashState8Read1To3EPKhm(ptr noundef %22, i64 noundef %23)
  %25 = zext i32 %24 to i64
  store i64 %25, ptr %8, align 8, !tbaa !4
  br label %28

26:                                               ; preds = %18
  %27 = load i64, ptr %5, align 8, !tbaa !4
  store i64 %27, ptr %4, align 8
  store i32 1, ptr %9, align 4
  br label %34

28:                                               ; preds = %21
  br label %29

29:                                               ; preds = %28, %14
  %30 = load i64, ptr %5, align 8, !tbaa !4
  %31 = load i64, ptr %8, align 8, !tbaa !4
  %32 = xor i64 %30, %31
  %33 = call noundef i64 @_ZN4absl13hash_internal15MixingHashState7WeakMixEm(i64 noundef %32)
  store i64 %33, ptr %4, align 8
  store i32 1, ptr %9, align 4
  br label %34

34:                                               ; preds = %29, %26
  call void @llvm.lifetime.end.p0(i64 8, ptr %8) #12
  %35 = load i64, ptr %4, align 8
  ret i64 %35
}

; Function Attrs: inlinehint mustprogress uwtable
define linkonce_odr dso_local noundef i64 @_ZN4absl13hash_internal15MixingHashState21CombineContiguousImplEmPKhmSt17integral_constantIiLi4EE(i64 noundef %0, ptr noundef %1, i64 noundef %2) #4 comdat align 2 {
  %4 = alloca i64, align 8
  %5 = alloca i64, align 8
  %6 = alloca ptr, align 8
  %7 = alloca i64, align 8
  store i64 %0, ptr %5, align 8, !tbaa !4
  store ptr %1, ptr %6, align 8, !tbaa !8
  store i64 %2, ptr %7, align 8, !tbaa !4
  %8 = load i64, ptr %7, align 8, !tbaa !4
  %9 = icmp ule i64 %8, 8
  br i1 %9, label %10, label %15

10:                                               ; preds = %3
  %11 = load i64, ptr %5, align 8, !tbaa !4
  %12 = load ptr, ptr %6, align 8, !tbaa !8
  %13 = load i64, ptr %7, align 8, !tbaa !4
  %14 = call noundef i64 @_ZN4absl13hash_internal15MixingHashState26CombineSmallContiguousImplEmPKhm(i64 noundef %11, ptr noundef %12, i64 noundef %13)
  store i64 %14, ptr %4, align 8
  br label %35

15:                                               ; preds = %3
  %16 = load i64, ptr %7, align 8, !tbaa !4
  %17 = call noundef i64 @_ZN4absl13hash_internal18PiecewiseChunkSizeEv()
  %18 = icmp ule i64 %16, %17
  %19 = zext i1 %18 to i64
  %20 = call i64 @llvm.expect.i64(i64 %19, i64 1)
  %21 = icmp ne i64 %20, 0
  br i1 %21, label %22, label %30

22:                                               ; preds = %15
  %23 = load i64, ptr %5, align 8, !tbaa !4
  %24 = load ptr, ptr %6, align 8, !tbaa !8
  %25 = load i64, ptr %7, align 8, !tbaa !4
  %26 = call noundef i32 @_ZN4absl13hash_internal10CityHash32EPKcm(ptr noundef %24, i64 noundef %25)
  %27 = zext i32 %26 to i64
  %28 = xor i64 %23, %27
  %29 = call noundef i64 @_ZN4absl13hash_internal15MixingHashState3MixEmm(i64 noundef %28, i64 noundef -2543921745674291987)
  store i64 %29, ptr %4, align 8
  br label %35

30:                                               ; preds = %15
  %31 = load i64, ptr %5, align 8, !tbaa !4
  %32 = load ptr, ptr %6, align 8, !tbaa !8
  %33 = load i64, ptr %7, align 8, !tbaa !4
  %34 = call noundef i64 @_ZN4absl13hash_internal15MixingHashState28CombineLargeContiguousImpl32EmPKhm(i64 noundef %31, ptr noundef %32, i64 noundef %33)
  store i64 %34, ptr %4, align 8
  br label %35

35:                                               ; preds = %30, %22, %10
  %36 = load i64, ptr %4, align 8
  ret i64 %36
}

; Function Attrs: alwaysinline mustprogress nounwind uwtable
define linkonce_odr dso_local noundef i64 @_ZN4absl13hash_internal15MixingHashState3MixEmm(i64 noundef %0, i64 noundef %1) #2 comdat align 2 {
  %3 = alloca i64, align 8
  %4 = alloca i64, align 8
  %5 = alloca i128, align 16
  store i64 %0, ptr %3, align 8, !tbaa !4
  store i64 %1, ptr %4, align 8, !tbaa !4
  call void @llvm.lifetime.start.p0(i64 16, ptr %5) #12
  %6 = load i64, ptr %3, align 8, !tbaa !4
  %7 = zext i64 %6 to i128
  store i128 %7, ptr %5, align 16, !tbaa !13
  %8 = load i64, ptr %4, align 8, !tbaa !4
  %9 = zext i64 %8 to i128
  %10 = load i128, ptr %5, align 16, !tbaa !13
  %11 = mul i128 %10, %9
  store i128 %11, ptr %5, align 16, !tbaa !13
  %12 = load i128, ptr %5, align 16, !tbaa !13
  %13 = load i128, ptr %5, align 16, !tbaa !13
  %14 = lshr i128 %13, 64
  %15 = xor i128 %12, %14
  %16 = trunc i128 %15 to i64
  call void @llvm.lifetime.end.p0(i64 16, ptr %5) #12
  ret i64 %16
}

; Function Attrs: mustprogress nounwind uwtable
define linkonce_odr dso_local noundef i64 @_ZN4absl13hash_internal18PiecewiseChunkSizeEv() #1 comdat {
  ret i64 1024
}

; Function Attrs: mustprogress uwtable
define dso_local noundef i64 @_ZN4absl13hash_internal15MixingHashState28CombineLargeContiguousImpl32EmPKhm(i64 noundef %0, ptr noundef %1, i64 noundef %2) #0 align 2 {
  %4 = alloca i64, align 8
  %5 = alloca ptr, align 8
  %6 = alloca i64, align 8
  store i64 %0, ptr %4, align 8, !tbaa !4
  store ptr %1, ptr %5, align 8, !tbaa !8
  store i64 %2, ptr %6, align 8, !tbaa !4
  br label %7

7:                                                ; preds = %11, %3
  %8 = load i64, ptr %6, align 8, !tbaa !4
  %9 = call noundef i64 @_ZN4absl13hash_internal18PiecewiseChunkSizeEv()
  %10 = icmp uge i64 %8, %9
  br i1 %10, label %11, label %25

11:                                               ; preds = %7
  %12 = load i64, ptr %4, align 8, !tbaa !4
  %13 = load ptr, ptr %5, align 8, !tbaa !8
  %14 = call noundef i64 @_ZN4absl13hash_internal18PiecewiseChunkSizeEv()
  %15 = call noundef i32 @_ZN4absl13hash_internal10CityHash32EPKcm(ptr noundef %13, i64 noundef %14)
  %16 = zext i32 %15 to i64
  %17 = xor i64 %12, %16
  %18 = call noundef i64 @_ZN4absl13hash_internal15MixingHashState3MixEmm(i64 noundef %17, i64 noundef -2543921745674291987)
  store i64 %18, ptr %4, align 8, !tbaa !4
  %19 = call noundef i64 @_ZN4absl13hash_internal18PiecewiseChunkSizeEv()
  %20 = load i64, ptr %6, align 8, !tbaa !4
  %21 = sub i64 %20, %19
  store i64 %21, ptr %6, align 8, !tbaa !4
  %22 = call noundef i64 @_ZN4absl13hash_internal18PiecewiseChunkSizeEv()
  %23 = load ptr, ptr %5, align 8, !tbaa !8
  %24 = getelementptr inbounds nuw i8, ptr %23, i64 %22
  store ptr %24, ptr %5, align 8, !tbaa !8
  br label %7, !llvm.loop !11

25:                                               ; preds = %7
  %26 = load i64, ptr %4, align 8, !tbaa !4
  %27 = load ptr, ptr %5, align 8, !tbaa !8
  %28 = load i64, ptr %6, align 8, !tbaa !4
  %29 = call noundef i64 @_ZN4absl13hash_internal15MixingHashState21CombineContiguousImplEmPKhmSt17integral_constantIiLi4EE(i64 noundef %26, ptr noundef %27, i64 noundef %28)
  ret i64 %29
}