; Function Attrs: mustprogress uwtable
define dso_local noundef i64 @_ZN4absl13hash_internal15MixingHashState28CombineLargeContiguousImpl32EmPKhm(i64 noundef %0, ptr noundef %1, i64 noundef %2) local_unnamed_addr #0 align 2 {
  %.not9 = icmp ult i64 %2, 1024
  br i1 %.not9, label %._crit_edge, label %.lr.ph

.lr.ph:                                           ; preds = %3, %.lr.ph
  %.012 = phi i64 [ %12, %.lr.ph ], [ %2, %3 ]
  %.0711 = phi ptr [ %13, %.lr.ph ], [ %1, %3 ]
  %.0810 = phi i64 [ %11, %.lr.ph ], [ %0, %3 ]
  %4 = tail call noundef i32 @_ZN4absl13hash_internal10CityHash32EPKcm(ptr noundef %.0711, i64 noundef 1024)
  %5 = zext i32 %4 to i64
  %6 = xor i64 %.0810, %5
  %7 = zext i64 %6 to i128
  %8 = mul nuw i128 %7, 15902822328035259629
  %9 = lshr i128 %8, 64
  %10 = xor i128 %9, %8
  %11 = trunc i128 %10 to i64
  %12 = add i64 %.012, -1024
  %13 = getelementptr inbounds nuw i8, ptr %.0711, i64 1024
  %.not = icmp ult i64 %12, 1024
  br i1 %.not, label %._crit_edge, label %.lr.ph, !llvm.loop !4

._crit_edge:                                      ; preds = %.lr.ph, %3
  %.08.lcssa = phi i64 [ %0, %3 ], [ %11, %.lr.ph ]
  %.07.lcssa = phi ptr [ %1, %3 ], [ %13, %.lr.ph ]
  %.0.lcssa = phi i64 [ %2, %3 ], [ %12, %.lr.ph ]
  %14 = icmp samesign ult i64 %.0.lcssa, 9
  br i1 %14, label %15, label %44

15:                                               ; preds = %._crit_edge
  %16 = icmp samesign ugt i64 %.0.lcssa, 3
  br i1 %16, label %17, label %24

17:                                               ; preds = %15
  %.0.copyload.i.i = load i32, ptr %.07.lcssa, align 1
  %18 = zext i32 %.0.copyload.i.i to i64
  %19 = shl nuw i64 %18, 32
  %20 = getelementptr inbounds nuw i8, ptr %.07.lcssa, i64 %.0.lcssa
  %21 = getelementptr inbounds i8, ptr %20, i64 -4
  %.0.copyload.i4.i = load i32, ptr %21, align 1
  %22 = zext i32 %.0.copyload.i4.i to i64
  %23 = or disjoint i64 %19, %22
  br label %40

24:                                               ; preds = %15
  %.not.i.i = icmp eq i64 %.0.lcssa, 0
  br i1 %.not.i.i, label %_ZN4absl13hash_internal15MixingHashState21CombineContiguousImplEmPKhmSt17integral_constantIiLi4EE.exit, label %25

25:                                               ; preds = %24
  %26 = load i8, ptr %.07.lcssa, align 1, !tbaa !6
  %27 = zext i8 %26 to i64
  %28 = shl nuw nsw i64 %27, 16
  %29 = getelementptr i8, ptr %.07.lcssa, i64 %.0.lcssa
  %30 = getelementptr i8, ptr %29, i64 -1
  %31 = load i8, ptr %30, align 1, !tbaa !6
  %32 = zext i8 %31 to i64
  %33 = or disjoint i64 %28, %32
  %34 = lshr i64 %.0.lcssa, 1
  %35 = getelementptr inbounds nuw i8, ptr %.07.lcssa, i64 %34
  %36 = load i8, ptr %35, align 1, !tbaa !6
  %37 = zext i8 %36 to i64
  %38 = shl nuw nsw i64 %37, 8
  %39 = or disjoint i64 %33, %38
  br label %40

40:                                               ; preds = %25, %17
  %.0.i.i = phi i64 [ %23, %17 ], [ %39, %25 ]
  %41 = xor i64 %.0.i.i, %.08.lcssa
  %42 = mul i64 %41, -2543921745674291987
  %43 = tail call noundef i64 @llvm.bswap.i64(i64 %42)
  br label %_ZN4absl13hash_internal15MixingHashState21CombineContiguousImplEmPKhmSt17integral_constantIiLi4EE.exit

44:                                               ; preds = %._crit_edge
  %45 = tail call noundef i32 @_ZN4absl13hash_internal10CityHash32EPKcm(ptr noundef %.07.lcssa, i64 noundef %.0.lcssa)
  %46 = zext i32 %45 to i64
  %47 = xor i64 %.08.lcssa, %46
  %48 = zext i64 %47 to i128
  %49 = mul nuw i128 %48, 15902822328035259629
  %50 = lshr i128 %49, 64
  %51 = xor i128 %50, %49
  %52 = trunc i128 %51 to i64
  br label %_ZN4absl13hash_internal15MixingHashState21CombineContiguousImplEmPKhmSt17integral_constantIiLi4EE.exit

_ZN4absl13hash_internal15MixingHashState21CombineContiguousImplEmPKhmSt17integral_constantIiLi4EE.exit: ; preds = %24, %40, %44
  %.0.i = phi i64 [ %52, %44 ], [ %43, %40 ], [ %.08.lcssa, %24 ]
  ret i64 %.0.i
}